; Function Attrs: nounwind sspstrong uwtable
define internal range(i32 0, 2) i32 @aio_ctx_prepare(ptr noundef %source, ptr noundef captures(none) %timeout) #0 {
entry:
  %notify_me = getelementptr inbounds nuw i8, ptr %source, i64 168
  %0 = load atomic i32, ptr %notify_me monotonic, align 8
  %or = or i32 %0, 1
  store atomic i32 %or, ptr %notify_me monotonic, align 8
  tail call void asm sideeffect "", "~{memory},~{dirflag},~{fpsr},~{flags}"() #13, !srcloc !22
  fence seq_cst
  %bh_list.i = getelementptr inbounds nuw i8, ptr %source, i64 176
  %1 = load atomic i64, ptr %bh_list.i monotonic, align 8
  tail call void asm sideeffect "", "~{memory},~{dirflag},~{fpsr},~{flags}"() #13, !srcloc !11
  %tobool.not6.i.i = icmp eq i64 %1, 0
  br i1 %tobool.not6.i.i, label %if.end.i, label %for.body.i.i

for.body.i.i:                                     ; preds = %entry, %while.end10.i.i
  %bh.08.in.i.i = phi i64 [ %3, %while.end10.i.i ], [ %1, %entry ]
  %timeout.addr.07.i.i = phi i32 [ %timeout.addr.1.i.i, %while.end10.i.i ], [ -1, %entry ]
  %bh.08.i.i = inttoptr i64 %bh.08.in.i.i to ptr
  %flags.i.i = getelementptr inbounds nuw i8, ptr %bh.08.i.i, i64 40
  %2 = load i32, ptr %flags.i.i, align 8
  %and.i.i = and i32 %2, 6
  %cmp.i.i = icmp eq i32 %and.i.i, 2
  br i1 %cmp.i.i, label %if.then.i.i, label %while.end10.i.i

if.then.i.i:                                      ; preds = %for.body.i.i
  %and2.i.i = and i32 %2, 16
  %tobool3.not.i.i = icmp eq i32 %and2.i.i, 0
  br i1 %tobool3.not.i.i, label %aio_compute_timeout.exit, label %while.end10.i.i

while.end10.i.i:                                  ; preds = %if.then.i.i, %for.body.i.i
  %timeout.addr.1.i.i = phi i32 [ %timeout.addr.07.i.i, %for.body.i.i ], [ 10000000, %if.then.i.i ]
  %next.i.i = getelementptr inbounds nuw i8, ptr %bh.08.i.i, i64 32
  %3 = load atomic i64, ptr %next.i.i monotonic, align 8
  tail call void asm sideeffect "", "~{memory},~{dirflag},~{fpsr},~{flags}"() #13, !srcloc !12
  %tobool.not.i.i = icmp eq i64 %3, 0
  br i1 %tobool.not.i.i, label %aio_compute_bh_timeout.exit.i, label %for.body.i.i, !llvm.loop !13

aio_compute_bh_timeout.exit.i:                    ; preds = %while.end10.i.i
  %conv.i.i = sext i32 %timeout.addr.1.i.i to i64
  br label %if.end.i

if.end.i:                                         ; preds = %aio_compute_bh_timeout.exit.i, %entry
  %conv.i36.i = phi i64 [ %conv.i.i, %aio_compute_bh_timeout.exit.i ], [ -1, %entry ]
  %bh_slice_list.i = getelementptr inbounds nuw i8, ptr %source, i64 184
  %s.043.i = load ptr, ptr %bh_slice_list.i, align 8
  %tobool.not44.i = icmp eq ptr %s.043.i, null
  br i1 %tobool.not44.i, label %for.end.i, label %for.body.preheader.i

for.body.preheader.i:                             ; preds = %if.end.i
  %4 = trunc nsw i64 %conv.i36.i to i32
  br label %for.body.i

for.cond.i:                                       ; preds = %aio_compute_bh_timeout.exit29.i
  %next.i = getelementptr inbounds nuw i8, ptr %s.046.i, i64 8
  %s.0.i = load ptr, ptr %next.i, align 8
  %tobool.not.i = icmp eq ptr %s.0.i, null
  br i1 %tobool.not.i, label %for.end.loopexit.i, label %for.body.i, !llvm.loop !14

for.body.i:                                       ; preds = %for.cond.i, %for.body.preheader.i
  %s.046.i = phi ptr [ %s.0.i, %for.cond.i ], [ %s.043.i, %for.body.preheader.i ]
  %timeout.0.in45.i = phi i32 [ %timeout.addr.0.lcssa.i23.i, %for.cond.i ], [ %4, %for.body.preheader.i ]
  %5 = load atomic i64, ptr %s.046.i monotonic, align 8
  tail call void asm sideeffect "", "~{memory},~{dirflag},~{fpsr},~{flags}"() #13, !srcloc !11
  %tobool.not6.i10.i = icmp eq i64 %5, 0
  br i1 %tobool.not6.i10.i, label %aio_compute_bh_timeout.exit29.i, label %for.body.i11.i

for.body.i11.i:                                   ; preds = %for.body.i, %while.end10.i18.i
  %bh.08.in.i12.i = phi i64 [ %7, %while.end10.i18.i ], [ %5, %for.body.i ]
  %timeout.addr.07.i13.i = phi i32 [ %timeout.addr.1.i19.i, %while.end10.i18.i ], [ %timeout.0.in45.i, %for.body.i ]
  %bh.08.i14.i = inttoptr i64 %bh.08.in.i12.i to ptr
  %flags.i15.i = getelementptr inbounds nuw i8, ptr %bh.08.i14.i, i64 40
  %6 = load i32, ptr %flags.i15.i, align 8
  %and.i16.i = and i32 %6, 6
  %cmp.i17.i = icmp eq i32 %and.i16.i, 2
  br i1 %cmp.i17.i, label %if.then.i26.i, label %while.end10.i18.i

if.then.i26.i:                                    ; preds = %for.body.i11.i
  %and2.i27.i = and i32 %6, 16
  %tobool3.not.i28.i = icmp eq i32 %and2.i27.i, 0
  br i1 %tobool3.not.i28.i, label %aio_compute_timeout.exit, label %while.end10.i18.i

while.end10.i18.i:                                ; preds = %if.then.i26.i, %for.body.i11.i
  %timeout.addr.1.i19.i = phi i32 [ %timeout.addr.07.i13.i, %for.body.i11.i ], [ 10000000, %if.then.i26.i ]
  %next.i20.i = getelementptr inbounds nuw i8, ptr %bh.08.i14.i, i64 32
  %7 = load atomic i64, ptr %next.i20.i monotonic, align 8
  tail call void asm sideeffect "", "~{memory},~{dirflag},~{fpsr},~{flags}"() #13, !srcloc !12
  %tobool.not.i21.i = icmp eq i64 %7, 0
  br i1 %tobool.not.i21.i, label %aio_compute_bh_timeout.exit29.i, label %for.body.i11.i, !llvm.loop !13

aio_compute_bh_timeout.exit29.i:                  ; preds = %while.end10.i18.i, %for.body.i
  %timeout.addr.0.lcssa.i23.i = phi i32 [ %timeout.0.in45.i, %for.body.i ], [ %timeout.addr.1.i19.i, %while.end10.i18.i ]
  %cmp5.i = icmp eq i32 %timeout.addr.0.lcssa.i23.i, 0
  br i1 %cmp5.i, label %aio_compute_timeout.exit, label %for.cond.i

for.end.loopexit.i:                               ; preds = %for.cond.i
  %conv.i24.i = sext i32 %timeout.addr.0.lcssa.i23.i to i64
  br label %for.end.i

for.end.i:                                        ; preds = %for.end.loopexit.i, %if.end.i
  %timeout.0.in.lcssa.i = phi i64 [ %conv.i36.i, %if.end.i ], [ %conv.i24.i, %for.end.loopexit.i ]
  %tlg.i = getelementptr inbounds nuw i8, ptr %source, i64 480
  %call9.i = tail call i64 @timerlistgroup_deadline_ns(ptr noundef nonnull %tlg.i) #13
  %cmp10.i = icmp eq i64 %call9.i, 0
  br i1 %cmp10.i, label %aio_compute_timeout.exit, label %if.else.i

if.else.i:                                        ; preds = %for.end.i
  %cond.i.i = tail call noundef i64 @llvm.umin.i64(i64 range(i64 -1, 10000001) %timeout.0.in.lcssa.i, i64 range(i64 1, 0) %call9.i)
  br label %aio_compute_timeout.exit

aio_compute_timeout.exit:                         ; preds = %if.then.i.i, %aio_compute_bh_timeout.exit29.i, %if.then.i26.i, %for.end.i, %if.else.i
  %retval.0.i = phi i64 [ %cond.i.i, %if.else.i ], [ 0, %for.end.i ], [ 0, %if.then.i26.i ], [ 0, %aio_compute_bh_timeout.exit29.i ], [ 0, %if.then.i.i ]
  %call9 = tail call i32 @qemu_timeout_ns_to_ms(i64 noundef %retval.0.i) #13
  store i32 %call9, ptr %timeout, align 4
  %call10 = tail call zeroext i1 @aio_prepare(ptr noundef %source) #13
  br i1 %call10, label %if.then, label %aio_compute_timeout.exit.if.end_crit_edge

aio_compute_timeout.exit.if.end_crit_edge:        ; preds = %aio_compute_timeout.exit
  %.pre = load i32, ptr %timeout, align 4
  %8 = icmp eq i32 %.pre, 0
  %9 = zext i1 %8 to i32
  br label %if.end

if.then:                                          ; preds = %aio_compute_timeout.exit
  store i32 0, ptr %timeout, align 4
  br label %if.end

if.end:                                           ; preds = %aio_compute_timeout.exit.if.end_crit_edge, %if.then
  %cmp = phi i32 [ %9, %aio_compute_timeout.exit.if.end_crit_edge ], [ 1, %if.then ]
  ret i32 %cmp
}